target datalayout = "e-m:e-p270:32:32-p271:32:32-p272:64:64-i64:64-i128:128-f80:128-n8:16:32:64-S128"
target triple = "x86_64-pc-linux-gnu"

%"class.std::__shared_count" = type { ptr }
%"class.arrow::internal::FileDescriptor" = type { %"struct.std::atomic" }
%"struct.std::atomic" = type { %"struct.std::__atomic_base" }
%"struct.std::__atomic_base" = type { i32 }
%"struct.arrow::internal::Pipe" = type { %"class.arrow::internal::FileDescriptor", %"class.arrow::internal::FileDescriptor" }
%"class.std::shared_ptr.55" = type { %"class.std::__shared_ptr.56" }
%"class.std::__shared_ptr.56" = type { ptr, %"class.std::__shared_count" }
%"class.std::weak_ptr" = type { %"class.std::__weak_ptr" }
%"class.std::__weak_ptr" = type { ptr, %"class.std::__weak_count" }
%"class.std::__weak_count" = type { ptr }
%"class.arrow::internal::(anonymous namespace)::SelfPipeImpl" = type { %"class.arrow::internal::SelfPipe", %"class.std::enable_shared_from_this", i8, %"struct.arrow::internal::Pipe", %"struct.std::atomic.53", %"class.std::shared_ptr.55" }
%"class.arrow::internal::SelfPipe" = type { ptr }
%"class.std::enable_shared_from_this" = type { %"class.std::weak_ptr" }
%"struct.std::atomic.53" = type { %"struct.std::__atomic_base.54" }
%"struct.std::__atomic_base.54" = type { i8 }

; Function Attrs: noinline noreturn nounwind uwtable
define linkonce_odr hidden void @__clang_call_terminate(ptr noundef %0) #16 comdat {
  %2 = call ptr @__cxa_begin_catch(ptr %0) #3
  call void @_ZSt9terminatev() #25
  unreachable
}

; Function Attrs: mustprogress nounwind uwtable
define linkonce_odr noundef i32 @_ZStanSt12memory_orderSt23__memory_order_modifier(i32 noundef %0, i32 noundef %1) #6 comdat {
  %3 = alloca i32, align 4
  %4 = alloca i32, align 4
  store i32 %0, ptr %3, align 4, !tbaa !117
  store i32 %1, ptr %4, align 4, !tbaa !553
  %5 = load i32, ptr %3, align 4, !tbaa !117
  %6 = load i32, ptr %4, align 4, !tbaa !553
  %7 = and i32 %5, %6
  ret i32 %7
}

; Function Attrs: alwaysinline mustprogress nounwind uwtable
define linkonce_odr noundef i32 @_ZNKSt13__atomic_baseIiE4loadESt12memory_order(ptr noundef nonnull align 4 dereferenceable(4) %0, i32 noundef %1) #15 comdat align 2 personality ptr @__gxx_personality_v0 {
  %3 = alloca ptr, align 8
  %4 = alloca i32, align 4
  %5 = alloca i32, align 4
  %6 = alloca i32, align 4
  store ptr %0, ptr %3, align 8, !tbaa !115
  store i32 %1, ptr %4, align 4, !tbaa !117
  %7 = load ptr, ptr %3, align 8
  call void @llvm.lifetime.start.p0(i64 4, ptr %5) #3
  %8 = load i32, ptr %4, align 4, !tbaa !117
  %9 = invoke noundef i32 @_ZStanSt12memory_orderSt23__memory_order_modifier(i32 noundef %8, i32 noundef 65535)
          to label %10 unwind label %27

10:                                               ; preds = %2
  store i32 %9, ptr %5, align 4, !tbaa !117
  br label %11

11:                                               ; preds = %10
  br label %12

12:                                               ; preds = %11
  br label %13

13:                                               ; preds = %12
  br label %14

14:                                               ; preds = %13
  br label %15

15:                                               ; preds = %14
  br label %16

16:                                               ; preds = %15
  %17 = getelementptr inbounds nuw %"struct.std::__atomic_base", ptr %7, i32 0, i32 0
  %18 = load i32, ptr %4, align 4, !tbaa !117
  switch i32 %18, label %19 [
    i32 1, label %21
    i32 2, label %21
    i32 5, label %23
  ]

19:                                               ; preds = %16
  %20 = load atomic i32, ptr %17 monotonic, align 4
  store i32 %20, ptr %6, align 4
  br label %25

21:                                               ; preds = %16, %16
  %22 = load atomic i32, ptr %17 acquire, align 4
  store i32 %22, ptr %6, align 4
  br label %25

23:                                               ; preds = %16
  %24 = load atomic i32, ptr %17 seq_cst, align 4
  store i32 %24, ptr %6, align 4
  br label %25

25:                                               ; preds = %23, %21, %19
  %26 = load i32, ptr %6, align 4, !tbaa !3
  call void @llvm.lifetime.end.p0(i64 4, ptr %5) #3
  ret i32 %26

27:                                               ; preds = %2
  %28 = landingpad { ptr, i32 }
          catch ptr null
  %29 = extractvalue { ptr, i32 } %28, 0
  call void @__clang_call_terminate(ptr %29) #25
  unreachable
}

; Function Attrs: mustprogress nounwind uwtable
define linkonce_odr noundef i32 @_ZNK5arrow8internal14FileDescriptor2fdEv(ptr noundef nonnull align 4 dereferenceable(4) %0) #6 comdat align 2 {
  %2 = alloca ptr, align 8
  store ptr %0, ptr %2, align 8, !tbaa !113
  %3 = load ptr, ptr %2, align 8
  %4 = getelementptr inbounds nuw %"class.arrow::internal::FileDescriptor", ptr %3, i32 0, i32 0
  %5 = call noundef i32 @_ZNKSt13__atomic_baseIiE4loadESt12memory_order(ptr noundef nonnull align 4 dereferenceable(4) %4, i32 noundef 5) #3
  ret i32 %5
}

; Function Attrs: mustprogress nounwind uwtable
define linkonce_odr noundef zeroext i1 @_ZNK5arrow8internal14FileDescriptor6closedEv(ptr noundef nonnull align 4 dereferenceable(4) %0) #6 comdat align 2 {
  %2 = alloca ptr, align 8
  store ptr %0, ptr %2, align 8, !tbaa !113
  %3 = load ptr, ptr %2, align 8
  %4 = getelementptr inbounds nuw %"class.arrow::internal::FileDescriptor", ptr %3, i32 0, i32 0
  %5 = call noundef i32 @_ZNKSt13__atomic_baseIiE4loadESt12memory_order(ptr noundef nonnull align 4 dereferenceable(4) %4, i32 noundef 5) #3
  %6 = icmp eq i32 %5, -1
  ret i1 %6
}

; Function Attrs: mustprogress uwtable
define internal noundef zeroext i1 @_ZN5arrow8internal12_GLOBAL__N_112SelfPipeImpl6DoSendEm(ptr noundef nonnull align 8 dereferenceable(56) %0, i64 noundef %1) #4 align 2 {
  %3 = alloca i1, align 1
  %4 = alloca ptr, align 8
  %5 = alloca i64, align 8
  %6 = alloca ptr, align 8
  %7 = alloca i64, align 8
  %8 = alloca i64, align 8
  %9 = alloca i32, align 4
  store ptr %0, ptr %4, align 8, !tbaa !131
  store i64 %1, ptr %5, align 8, !tbaa !62
  %10 = load ptr, ptr %4, align 8
  %11 = getelementptr inbounds nuw %"class.arrow::internal::(anonymous namespace)::SelfPipeImpl", ptr %10, i32 0, i32 3
  %12 = getelementptr inbounds nuw %"struct.arrow::internal::Pipe", ptr %11, i32 0, i32 1
  %13 = call noundef zeroext i1 @_ZNK5arrow8internal14FileDescriptor6closedEv(ptr noundef nonnull align 4 dereferenceable(4) %12)
  br i1 %13, label %14, label %15

14:                                               ; preds = %2
  store i1 false, ptr %3, align 1
  br label %49

15:                                               ; preds = %2
  call void @llvm.lifetime.start.p0(i64 8, ptr %6) #3
  store ptr %5, ptr %6, align 8, !tbaa !12
  call void @llvm.lifetime.start.p0(i64 8, ptr %7) #3
  store i64 8, ptr %7, align 8, !tbaa !62
  br label %16

16:                                               ; preds = %45, %43, %15
  %17 = load i64, ptr %7, align 8, !tbaa !62
  %18 = icmp sgt i64 %17, 0
  br i1 %18, label %19, label %46

19:                                               ; preds = %16
  call void @llvm.lifetime.start.p0(i64 8, ptr %8) #3
  %20 = getelementptr inbounds nuw %"class.arrow::internal::(anonymous namespace)::SelfPipeImpl", ptr %10, i32 0, i32 3
  %21 = getelementptr inbounds nuw %"struct.arrow::internal::Pipe", ptr %20, i32 0, i32 1
  %22 = call noundef i32 @_ZNK5arrow8internal14FileDescriptor2fdEv(ptr noundef nonnull align 4 dereferenceable(4) %21)
  %23 = load ptr, ptr %6, align 8, !tbaa !12
  %24 = load i64, ptr %7, align 8, !tbaa !62
  %25 = trunc i64 %24 to i32
  %26 = zext i32 %25 to i64
  %27 = call i64 @write(i32 noundef %22, ptr noundef %23, i64 noundef %26)
  store i64 %27, ptr %8, align 8, !tbaa !62
  %28 = load i64, ptr %8, align 8, !tbaa !62
  %29 = icmp slt i64 %28, 0
  br i1 %29, label %30, label %36

30:                                               ; preds = %19
  %31 = call ptr @__errno_location() #28
  %32 = load i32, ptr %31, align 4, !tbaa !3
  %33 = icmp eq i32 %32, 4
  br i1 %33, label %34, label %35

34:                                               ; preds = %30
  store i32 2, ptr %9, align 4
  br label %43, !llvm.loop !688

35:                                               ; preds = %30
  store i32 3, ptr %9, align 4
  br label %43

36:                                               ; preds = %19
  %37 = load i64, ptr %8, align 8, !tbaa !62
  %38 = load ptr, ptr %6, align 8, !tbaa !12
  %39 = getelementptr inbounds i8, ptr %38, i64 %37
  store ptr %39, ptr %6, align 8, !tbaa !12
  %40 = load i64, ptr %8, align 8, !tbaa !62
  %41 = load i64, ptr %7, align 8, !tbaa !62
  %42 = sub nsw i64 %41, %40
  store i64 %42, ptr %7, align 8, !tbaa !62
  store i32 0, ptr %9, align 4
  br label %43

43:                                               ; preds = %36, %35, %34
  call void @llvm.lifetime.end.p0(i64 8, ptr %8) #3
  %44 = load i32, ptr %9, align 4
  switch i32 %44, label %51 [
    i32 0, label %45
    i32 2, label %16
    i32 3, label %46
  ]

45:                                               ; preds = %43
  br label %16, !llvm.loop !688

46:                                               ; preds = %43, %16
  %47 = load i64, ptr %7, align 8, !tbaa !62
  %48 = icmp eq i64 %47, 0
  store i1 %48, ptr %3, align 1
  store i32 1, ptr %9, align 4
  call void @llvm.lifetime.end.p0(i64 8, ptr %7) #3
  call void @llvm.lifetime.end.p0(i64 8, ptr %6) #3
  br label %49

49:                                               ; preds = %46, %14
  %50 = load i1, ptr %3, align 1
  ret i1 %50

51:                                               ; preds = %43
  unreachable
}

; Function Attrs: mustprogress uwtable
define internal void @_ZN5arrow8internal12_GLOBAL__N_112SelfPipeImpl4SendEm(ptr noundef nonnull align 8 dereferenceable(56) %0, i64 noundef %1) unnamed_addr #4 align 2 {
  %3 = alloca ptr, align 8
  %4 = alloca i64, align 8
  %5 = alloca i32, align 4
  store ptr %0, ptr %3, align 8, !tbaa !131
  store i64 %1, ptr %4, align 8, !tbaa !62
  %6 = load ptr, ptr %3, align 8
  %7 = getelementptr inbounds nuw %"class.arrow::internal::(anonymous namespace)::SelfPipeImpl", ptr %6, i32 0, i32 2
  %8 = load i8, ptr %7, align 8, !tbaa !133, !range !82, !noundef !83
  %9 = trunc i8 %8 to i1
  br i1 %9, label %10, label %17

10:                                               ; preds = %2
  call void @llvm.lifetime.start.p0(i64 4, ptr %5) #3
  %11 = call ptr @__errno_location() #28
  %12 = load i32, ptr %11, align 4, !tbaa !3
  store i32 %12, ptr %5, align 4, !tbaa !3
  %13 = load i64, ptr %4, align 8, !tbaa !62
  %14 = call noundef zeroext i1 @_ZN5arrow8internal12_GLOBAL__N_112SelfPipeImpl6DoSendEm(ptr noundef nonnull align 8 dereferenceable(56) %6, i64 noundef %13)
  %15 = load i32, ptr %5, align 4, !tbaa !3
  %16 = call ptr @__errno_location() #28
  store i32 %15, ptr %16, align 4, !tbaa !3
  call void @llvm.lifetime.end.p0(i64 4, ptr %5) #3
  br label %20

17:                                               ; preds = %2
  %18 = load i64, ptr %4, align 8, !tbaa !62
  %19 = call noundef zeroext i1 @_ZN5arrow8internal12_GLOBAL__N_112SelfPipeImpl6DoSendEm(ptr noundef nonnull align 8 dereferenceable(56) %6, i64 noundef %18)
  br label %20

20:                                               ; preds = %17, %10
  ret void
}