; Function Attrs: mustprogress nofree uwtable
define internal void @_ZN5arrow8internal12_GLOBAL__N_112SelfPipeImpl4SendEm(ptr noundef nonnull readonly align 8 captures(none) dereferenceable(56) %0, i64 noundef %1) unnamed_addr #32 align 2 personality ptr @__gxx_personality_v0 {
  %3 = alloca i64, align 8
  %4 = alloca i64, align 8
  %5 = getelementptr inbounds nuw i8, ptr %0, i64 24
  %6 = load i8, ptr %5, align 8, !tbaa !398, !range !98, !noundef !99
  %7 = trunc nuw i8 %6 to i1
  br i1 %7, label %8, label %25

8:                                                ; preds = %2
  %9 = tail call ptr @__errno_location() #42
  %10 = load i32, ptr %9, align 4, !tbaa !38
  call void @llvm.lifetime.start.p0(i64 8, ptr nonnull %4)
  store i64 %1, ptr %4, align 8, !tbaa !9
  %11 = getelementptr inbounds nuw i8, ptr %0, i64 32
  %12 = load atomic i32, ptr %11 seq_cst, align 8
  %13 = icmp eq i32 %12, -1
  br i1 %13, label %_ZN5arrow8internal12_GLOBAL__N_112SelfPipeImpl6DoSendEm.exit, label %.preheader

.preheader:                                       ; preds = %8, %.preheader.outer.i
  %14 = phi i64 [ %22, %.preheader.outer.i ], [ 8, %8 ]
  %.012.ph.i18 = phi i64 [ %20, %.preheader.outer.i ], [ 8, %8 ]
  %.013.ph.i17 = phi ptr [ %19, %.preheader.outer.i ], [ %4, %8 ]
  br label %15

15:                                               ; preds = %.preheader, %23
  %16 = load atomic i32, ptr %11 seq_cst, align 8
  %17 = call i64 @write(i32 noundef %16, ptr noundef %.013.ph.i17, i64 noundef %14)
  %18 = icmp slt i64 %17, 0
  br i1 %18, label %23, label %.preheader.outer.i

.preheader.outer.i:                               ; preds = %15
  %19 = getelementptr inbounds nuw i8, ptr %.013.ph.i17, i64 %17
  %20 = sub nsw i64 %.012.ph.i18, %17
  %21 = icmp sgt i64 %20, 0
  %22 = and i64 %20, 4294967295
  br i1 %21, label %.preheader, label %_ZN5arrow8internal12_GLOBAL__N_112SelfPipeImpl6DoSendEm.exit

23:                                               ; preds = %15
  %24 = load i32, ptr %9, align 4, !tbaa !38
  %.not.i = icmp eq i32 %24, 4
  br i1 %.not.i, label %15, label %_ZN5arrow8internal12_GLOBAL__N_112SelfPipeImpl6DoSendEm.exit

_ZN5arrow8internal12_GLOBAL__N_112SelfPipeImpl6DoSendEm.exit: ; preds = %.preheader.outer.i, %23, %8
  call void @llvm.lifetime.end.p0(i64 8, ptr nonnull %4)
  store i32 %10, ptr %9, align 4, !tbaa !38
  br label %41

25:                                               ; preds = %2
  call void @llvm.lifetime.start.p0(i64 8, ptr nonnull %3)
  store i64 %1, ptr %3, align 8, !tbaa !9
  %26 = getelementptr inbounds nuw i8, ptr %0, i64 32
  %27 = load atomic i32, ptr %26 seq_cst, align 8
  %28 = icmp eq i32 %27, -1
  br i1 %28, label %_ZN5arrow8internal12_GLOBAL__N_112SelfPipeImpl6DoSendEm.exit8, label %.preheader10

.preheader10:                                     ; preds = %25, %.preheader.outer.i3
  %29 = phi i64 [ %37, %.preheader.outer.i3 ], [ 8, %25 ]
  %.012.ph.i516 = phi i64 [ %35, %.preheader.outer.i3 ], [ 8, %25 ]
  %.013.ph.i415 = phi ptr [ %34, %.preheader.outer.i3 ], [ %3, %25 ]
  br label %30

30:                                               ; preds = %.preheader10, %38
  %31 = load atomic i32, ptr %26 seq_cst, align 8
  %32 = call i64 @write(i32 noundef %31, ptr noundef %.013.ph.i415, i64 noundef %29)
  %33 = icmp slt i64 %32, 0
  br i1 %33, label %38, label %.preheader.outer.i3

.preheader.outer.i3:                              ; preds = %30
  %34 = getelementptr inbounds nuw i8, ptr %.013.ph.i415, i64 %32
  %35 = sub nsw i64 %.012.ph.i516, %32
  %36 = icmp sgt i64 %35, 0
  %37 = and i64 %35, 4294967295
  br i1 %36, label %.preheader10, label %_ZN5arrow8internal12_GLOBAL__N_112SelfPipeImpl6DoSendEm.exit8

38:                                               ; preds = %30
  %39 = tail call ptr @__errno_location() #42
  %40 = load i32, ptr %39, align 4, !tbaa !38
  %.not.i7 = icmp eq i32 %40, 4
  br i1 %.not.i7, label %30, label %_ZN5arrow8internal12_GLOBAL__N_112SelfPipeImpl6DoSendEm.exit8

_ZN5arrow8internal12_GLOBAL__N_112SelfPipeImpl6DoSendEm.exit8: ; preds = %.preheader.outer.i3, %38, %25
  call void @llvm.lifetime.end.p0(i64 8, ptr nonnull %3)
  br label %41

41:                                               ; preds = %_ZN5arrow8internal12_GLOBAL__N_112SelfPipeImpl6DoSendEm.exit8, %_ZN5arrow8internal12_GLOBAL__N_112SelfPipeImpl6DoSendEm.exit
  ret void
}